; Function Attrs: nounwind uwtable
define dso_local void @ReorderBufferSkipPrepare(ptr noundef captures(none) %0, i32 noundef %1) local_unnamed_addr #0 {
  %3 = alloca i32, align 4
  %4 = alloca i8, align 1
  call void @llvm.lifetime.start.p0(i64 4, ptr nonnull %3)
  store i32 %1, ptr %3, align 4
  call void @llvm.lifetime.start.p0(i64 1, ptr nonnull %4) #19
  %5 = getelementptr inbounds nuw i8, ptr %0, i64 64
  %6 = load i32, ptr %5, align 8
  %.not.i = icmp ne i32 %6, 0
  %7 = icmp eq i32 %6, %1
  %or.cond.i = and i1 %.not.i, %7
  br i1 %or.cond.i, label %8, label %11

8:                                                ; preds = %2
  %9 = getelementptr inbounds nuw i8, ptr %0, i64 72
  %10 = load ptr, ptr %9, align 8
  %.not34.i = icmp eq ptr %10, null
  call void @llvm.lifetime.end.p0(i64 1, ptr nonnull %4) #19
  call void @llvm.lifetime.end.p0(i64 4, ptr nonnull %3)
  br i1 %.not34.i, label %ReorderBufferTXNByXid.exit.thread, label %ReorderBufferTXNByXid.exit.thread4

11:                                               ; preds = %2
  %12 = load ptr, ptr %0, align 8
  %13 = call ptr @hash_search(ptr noundef %12, ptr noundef nonnull %3, i32 noundef 0, ptr noundef nonnull %4) #19
  %14 = load i8, ptr %4, align 1, !range !6, !noundef !7
  %15 = trunc nuw i8 %14 to i1
  br i1 %15, label %ReorderBufferTXNByXid.exit, label %ReorderBufferTXNByXid.exit.thread7

ReorderBufferTXNByXid.exit.thread7:               ; preds = %11
  %16 = load i32, ptr %3, align 4
  store i32 %16, ptr %5, align 8
  %17 = getelementptr inbounds nuw i8, ptr %0, i64 72
  store ptr null, ptr %17, align 8
  call void @llvm.lifetime.end.p0(i64 1, ptr nonnull %4) #19
  call void @llvm.lifetime.end.p0(i64 4, ptr nonnull %3)
  br label %ReorderBufferTXNByXid.exit.thread

ReorderBufferTXNByXid.exit:                       ; preds = %11
  %18 = getelementptr inbounds nuw i8, ptr %13, i64 8
  %19 = load ptr, ptr %18, align 8
  %20 = load i32, ptr %3, align 4
  store i32 %20, ptr %5, align 8
  %21 = getelementptr inbounds nuw i8, ptr %0, i64 72
  store ptr %19, ptr %21, align 8
  call void @llvm.lifetime.end.p0(i64 1, ptr nonnull %4) #19
  call void @llvm.lifetime.end.p0(i64 4, ptr nonnull %3)
  %22 = icmp eq ptr %19, null
  br i1 %22, label %ReorderBufferTXNByXid.exit.thread, label %ReorderBufferTXNByXid.exit.thread4

ReorderBufferTXNByXid.exit.thread4:               ; preds = %8, %ReorderBufferTXNByXid.exit
  %.0.i6 = phi ptr [ %19, %ReorderBufferTXNByXid.exit ], [ %10, %8 ]
  %23 = load i32, ptr %.0.i6, align 8
  %24 = or i32 %23, 128
  store i32 %24, ptr %.0.i6, align 8
  br label %ReorderBufferTXNByXid.exit.thread

ReorderBufferTXNByXid.exit.thread:                ; preds = %8, %ReorderBufferTXNByXid.exit.thread7, %ReorderBufferTXNByXid.exit, %ReorderBufferTXNByXid.exit.thread4
  ret void
}